#include <math.h>
#include <stdio.h>
#include <stdlib.h>
#include <string.h>

void start()
{
	int i,lenstr,lensub;
	char str[11],substr[4],max,t;
	
	while(scanf("%s%s",str,substr)!=EOF)
	{lenstr=strlen(str);
	lensub=strlen(substr);
	max=str[0];
	for(i=1;i<lenstr;i++)
	{
		if(max<str[i])
		{
		max=str[i];
		t=i;
		}
	}
	for(i=0;i<=t;i++)
		printf("%c",str[i]);
	for(i=0;i<lensub;i++)
		printf("%c",substr[i]);
	for(i=t+1;i<lenstr;i++)
		printf("%c",str[i]);
	printf("\n");
	start();

	}
	}
void main()
{
	start();
}