; ModuleID = '20/424.c'
source_filename = "20/424.c"
target datalayout = "e-m:e-p270:32:32-p271:32:32-p272:64:64-i64:64-f80:128-n8:16:32:64-S128"
target triple = "x86_64-pc-linux-gnu"

@.str = private unnamed_addr constant [5 x i8] c"%s%s\00", align 1
@.str.1 = private unnamed_addr constant [3 x i8] c"%c\00", align 1
@.str.2 = private unnamed_addr constant [2 x i8] c"\0A\00", align 1

; Function Attrs: noinline nounwind uwtable
define dso_local void @start() #0 {
  %1 = alloca i32, align 4
  %2 = alloca i32, align 4
  %3 = alloca i32, align 4
  %4 = alloca [11 x i8], align 1
  %5 = alloca [4 x i8], align 1
  %6 = alloca i8, align 1
  %7 = alloca i8, align 1
  br label %8

8:                                                ; preds = %95, %0
  %9 = getelementptr inbounds [11 x i8], [11 x i8]* %4, i64 0, i64 0
  %10 = getelementptr inbounds [4 x i8], [4 x i8]* %5, i64 0, i64 0
  %11 = call i32 (i8*, ...) @__isoc99_scanf(i8* getelementptr inbounds ([5 x i8], [5 x i8]* @.str, i64 0, i64 0), i8* %9, i8* %10)
  %12 = icmp ne i32 %11, -1
  br i1 %12, label %13, label %97

13:                                               ; preds = %8
  %14 = getelementptr inbounds [11 x i8], [11 x i8]* %4, i64 0, i64 0
  %15 = call i64 @strlen(i8* %14) #3
  %16 = trunc i64 %15 to i32
  store i32 %16, i32* %2, align 4
  %17 = getelementptr inbounds [4 x i8], [4 x i8]* %5, i64 0, i64 0
  %18 = call i64 @strlen(i8* %17) #3
  %19 = trunc i64 %18 to i32
  store i32 %19, i32* %3, align 4
  %20 = getelementptr inbounds [11 x i8], [11 x i8]* %4, i64 0, i64 0
  %21 = load i8, i8* %20, align 1
  store i8 %21, i8* %6, align 1
  store i32 1, i32* %1, align 4
  br label %22

22:                                               ; preds = %43, %13
  %23 = load i32, i32* %1, align 4
  %24 = load i32, i32* %2, align 4
  %25 = icmp slt i32 %23, %24
  br i1 %25, label %26, label %46

26:                                               ; preds = %22
  %27 = load i8, i8* %6, align 1
  %28 = sext i8 %27 to i32
  %29 = load i32, i32* %1, align 4
  %30 = sext i32 %29 to i64
  %31 = getelementptr inbounds [11 x i8], [11 x i8]* %4, i64 0, i64 %30
  %32 = load i8, i8* %31, align 1
  %33 = sext i8 %32 to i32
  %34 = icmp slt i32 %28, %33
  br i1 %34, label %35, label %42

35:                                               ; preds = %26
  %36 = load i32, i32* %1, align 4
  %37 = sext i32 %36 to i64
  %38 = getelementptr inbounds [11 x i8], [11 x i8]* %4, i64 0, i64 %37
  %39 = load i8, i8* %38, align 1
  store i8 %39, i8* %6, align 1
  %40 = load i32, i32* %1, align 4
  %41 = trunc i32 %40 to i8
  store i8 %41, i8* %7, align 1
  br label %42

42:                                               ; preds = %35, %26
  br label %43

43:                                               ; preds = %42
  %44 = load i32, i32* %1, align 4
  %45 = add nsw i32 %44, 1
  store i32 %45, i32* %1, align 4
  br label %22

46:                                               ; preds = %22
  store i32 0, i32* %1, align 4
  br label %47

47:                                               ; preds = %59, %46
  %48 = load i32, i32* %1, align 4
  %49 = load i8, i8* %7, align 1
  %50 = sext i8 %49 to i32
  %51 = icmp sle i32 %48, %50
  br i1 %51, label %52, label %62

52:                                               ; preds = %47
  %53 = load i32, i32* %1, align 4
  %54 = sext i32 %53 to i64
  %55 = getelementptr inbounds [11 x i8], [11 x i8]* %4, i64 0, i64 %54
  %56 = load i8, i8* %55, align 1
  %57 = sext i8 %56 to i32
  %58 = call i32 (i8*, ...) @printf(i8* getelementptr inbounds ([3 x i8], [3 x i8]* @.str.1, i64 0, i64 0), i32 %57)
  br label %59

59:                                               ; preds = %52
  %60 = load i32, i32* %1, align 4
  %61 = add nsw i32 %60, 1
  store i32 %61, i32* %1, align 4
  br label %47

62:                                               ; preds = %47
  store i32 0, i32* %1, align 4
  br label %63

63:                                               ; preds = %74, %62
  %64 = load i32, i32* %1, align 4
  %65 = load i32, i32* %3, align 4
  %66 = icmp slt i32 %64, %65
  br i1 %66, label %67, label %77

67:                                               ; preds = %63
  %68 = load i32, i32* %1, align 4
  %69 = sext i32 %68 to i64
  %70 = getelementptr inbounds [4 x i8], [4 x i8]* %5, i64 0, i64 %69
  %71 = load i8, i8* %70, align 1
  %72 = sext i8 %71 to i32
  %73 = call i32 (i8*, ...) @printf(i8* getelementptr inbounds ([3 x i8], [3 x i8]* @.str.1, i64 0, i64 0), i32 %72)
  br label %74

74:                                               ; preds = %67
  %75 = load i32, i32* %1, align 4
  %76 = add nsw i32 %75, 1
  store i32 %76, i32* %1, align 4
  br label %63

77:                                               ; preds = %63
  %78 = load i8, i8* %7, align 1
  %79 = sext i8 %78 to i32
  %80 = add nsw i32 %79, 1
  store i32 %80, i32* %1, align 4
  br label %81

81:                                               ; preds = %92, %77
  %82 = load i32, i32* %1, align 4
  %83 = load i32, i32* %2, align 4
  %84 = icmp slt i32 %82, %83
  br i1 %84, label %85, label %95

85:                                               ; preds = %81
  %86 = load i32, i32* %1, align 4
  %87 = sext i32 %86 to i64
  %88 = getelementptr inbounds [11 x i8], [11 x i8]* %4, i64 0, i64 %87
  %89 = load i8, i8* %88, align 1
  %90 = sext i8 %89 to i32
  %91 = call i32 (i8*, ...) @printf(i8* getelementptr inbounds ([3 x i8], [3 x i8]* @.str.1, i64 0, i64 0), i32 %90)
  br label %92

92:                                               ; preds = %85
  %93 = load i32, i32* %1, align 4
  %94 = add nsw i32 %93, 1
  store i32 %94, i32* %1, align 4
  br label %81

95:                                               ; preds = %81
  %96 = call i32 (i8*, ...) @printf(i8* getelementptr inbounds ([2 x i8], [2 x i8]* @.str.2, i64 0, i64 0))
  call void @start()
  br label %8

97:                                               ; preds = %8
  ret void
}

declare dso_local i32 @__isoc99_scanf(i8*, ...) #1

; Function Attrs: nounwind readonly
declare dso_local i64 @strlen(i8*) #2

declare dso_local i32 @printf(i8*, ...) #1

; Function Attrs: noinline nounwind uwtable
define dso_local void @main() #0 {
  call void @start()
  ret void
}


!llvm.module.flags = !{!0}
!llvm.ident = !{!1}

!0 = !{i32 1, !"wchar_size", i32 4}
!1 = !{!"clang version 10.0.0-4ubuntu1 "}
